; Function Attrs: mustprogress uwtable
define noundef i64 @_ZNK5faiss19MaskedInvertedLists9list_sizeEm(ptr noundef nonnull readonly align 8 captures(none) dereferenceable(48) %0, i64 noundef %1) unnamed_addr #2 align 2 {
  %3 = getelementptr inbounds nuw i8, ptr %0, i64 32
  %4 = load ptr, ptr %3, align 8, !tbaa !76
  %5 = load ptr, ptr %4, align 8, !tbaa !4
  %6 = getelementptr inbounds nuw i8, ptr %5, i64 16
  %7 = load ptr, ptr %6, align 8
  %8 = tail call noundef i64 %7(ptr noundef nonnull align 8 dereferenceable(25) %4, i64 noundef %1)
  %.not = icmp eq i64 %8, 0
  br i1 %.not, label %9, label %16

9:                                                ; preds = %2
  %10 = getelementptr inbounds nuw i8, ptr %0, i64 40
  %11 = load ptr, ptr %10, align 8, !tbaa !78
  %12 = load ptr, ptr %11, align 8, !tbaa !4
  %13 = getelementptr inbounds nuw i8, ptr %12, i64 16
  %14 = load ptr, ptr %13, align 8
  %15 = tail call noundef i64 %14(ptr noundef nonnull align 8 dereferenceable(25) %11, i64 noundef %1)
  br label %16

16:                                               ; preds = %2, %9
  %17 = phi i64 [ %15, %9 ], [ %8, %2 ]
  ret i64 %17
}